target datalayout = "e-m:e-p270:32:32-p271:32:32-p272:64:64-i64:64-i128:128-f80:128-n8:16:32:64-S128"
target triple = "x86_64-pc-linux-gnu"

; Function Attrs: nounwind uwtable
define internal void @Yuv444ToBgra_SSE2(ptr noalias noundef %0, ptr noalias noundef %1, ptr noalias noundef %2, ptr noalias noundef %3, i32 noundef %4) #0 {
  %6 = alloca ptr, align 8
  %7 = alloca ptr, align 8
  %8 = alloca ptr, align 8
  %9 = alloca ptr, align 8
  %10 = alloca i32, align 4
  %11 = alloca i32, align 4
  %12 = alloca i32, align 4
  store ptr %0, ptr %6, align 8, !tbaa !7
  store ptr %1, ptr %7, align 8, !tbaa !7
  store ptr %2, ptr %8, align 8, !tbaa !7
  store ptr %3, ptr %9, align 8, !tbaa !7
  store i32 %4, ptr %10, align 4, !tbaa !9
  call void @llvm.lifetime.start.p0(i64 4, ptr %11) #9
  call void @llvm.lifetime.start.p0(i64 4, ptr %12) #9
  %13 = load i32, ptr %10, align 4, !tbaa !9
  %14 = and i32 %13, -32
  store i32 %14, ptr %12, align 4, !tbaa !9
  store i32 0, ptr %11, align 4, !tbaa !9
  br label %15

15:                                               ; preds = %37, %5
  %16 = load i32, ptr %11, align 4, !tbaa !9
  %17 = load i32, ptr %12, align 4, !tbaa !9
  %18 = icmp slt i32 %16, %17
  br i1 %18, label %19, label %40

19:                                               ; preds = %15
  %20 = load ptr, ptr %6, align 8, !tbaa !7
  %21 = load i32, ptr %11, align 4, !tbaa !9
  %22 = sext i32 %21 to i64
  %23 = getelementptr inbounds i8, ptr %20, i64 %22
  %24 = load ptr, ptr %7, align 8, !tbaa !7
  %25 = load i32, ptr %11, align 4, !tbaa !9
  %26 = sext i32 %25 to i64
  %27 = getelementptr inbounds i8, ptr %24, i64 %26
  %28 = load ptr, ptr %8, align 8, !tbaa !7
  %29 = load i32, ptr %11, align 4, !tbaa !9
  %30 = sext i32 %29 to i64
  %31 = getelementptr inbounds i8, ptr %28, i64 %30
  %32 = load ptr, ptr %9, align 8, !tbaa !7
  %33 = load i32, ptr %11, align 4, !tbaa !9
  %34 = mul nsw i32 %33, 4
  %35 = sext i32 %34 to i64
  %36 = getelementptr inbounds i8, ptr %32, i64 %35
  call void @VP8YuvToBgra32_SSE2(ptr noundef %23, ptr noundef %27, ptr noundef %31, ptr noundef %36)
  br label %37

37:                                               ; preds = %19
  %38 = load i32, ptr %11, align 4, !tbaa !9
  %39 = add nsw i32 %38, 32
  store i32 %39, ptr %11, align 4, !tbaa !9
  br label %15, !llvm.loop !21

40:                                               ; preds = %15
  %41 = load i32, ptr %11, align 4, !tbaa !9
  %42 = load i32, ptr %10, align 4, !tbaa !9
  %43 = icmp slt i32 %41, %42
  br i1 %43, label %44, label %65

44:                                               ; preds = %40
  %45 = load ptr, ptr %6, align 8, !tbaa !7
  %46 = load i32, ptr %11, align 4, !tbaa !9
  %47 = sext i32 %46 to i64
  %48 = getelementptr inbounds i8, ptr %45, i64 %47
  %49 = load ptr, ptr %7, align 8, !tbaa !7
  %50 = load i32, ptr %11, align 4, !tbaa !9
  %51 = sext i32 %50 to i64
  %52 = getelementptr inbounds i8, ptr %49, i64 %51
  %53 = load ptr, ptr %8, align 8, !tbaa !7
  %54 = load i32, ptr %11, align 4, !tbaa !9
  %55 = sext i32 %54 to i64
  %56 = getelementptr inbounds i8, ptr %53, i64 %55
  %57 = load ptr, ptr %9, align 8, !tbaa !7
  %58 = load i32, ptr %11, align 4, !tbaa !9
  %59 = mul nsw i32 %58, 4
  %60 = sext i32 %59 to i64
  %61 = getelementptr inbounds i8, ptr %57, i64 %60
  %62 = load i32, ptr %10, align 4, !tbaa !9
  %63 = load i32, ptr %11, align 4, !tbaa !9
  %64 = sub nsw i32 %62, %63
  call void @WebPYuv444ToBgra_C(ptr noundef %48, ptr noundef %52, ptr noundef %56, ptr noundef %61, i32 noundef %64)
  br label %65

65:                                               ; preds = %44, %40
  call void @llvm.lifetime.end.p0(i64 4, ptr %12) #9
  call void @llvm.lifetime.end.p0(i64 4, ptr %11) #9
  ret void
}